; Function Attrs: mustprogress nounwind uwtable
define hidden void @_ZN6Assimp16CIOStreamWrapperD0Ev(ptr noundef nonnull align 8 dereferenceable(24) %this) unnamed_addr #1 align 2 personality ptr @__gxx_personality_v0 {
entry:
  %mFile.i = getelementptr inbounds i8, ptr %this, i64 8
  %0 = load ptr, ptr %mFile.i, align 8
  %cmp.not.i = icmp eq ptr %0, null
  br i1 %cmp.not.i, label %_ZN6Assimp16CIOStreamWrapperD2Ev.exit, label %if.then.i

if.then.i:                                        ; preds = %entry
  %mIO.i = getelementptr inbounds i8, ptr %this, i64 16
  %1 = load ptr, ptr %mIO.i, align 8
  %mFileSystem.i = getelementptr inbounds i8, ptr %1, i64 32
  %2 = load ptr, ptr %mFileSystem.i, align 8
  %CloseProc.i = getelementptr inbounds i8, ptr %2, i64 8
  %3 = load ptr, ptr %CloseProc.i, align 8
  invoke void %3(ptr noundef nonnull %2, ptr noundef nonnull %0)
          to label %_ZN6Assimp16CIOStreamWrapperD2Ev.exit unwind label %terminate.lpad.i

terminate.lpad.i:                                 ; preds = %if.then.i
  %4 = landingpad { ptr, i32 }
          catch ptr null
  %5 = extractvalue { ptr, i32 } %4, 0
  tail call void @__clang_call_terminate(ptr %5) #12
  unreachable

_ZN6Assimp16CIOStreamWrapperD2Ev.exit:            ; preds = %entry, %if.then.i
  tail call void @_ZN6Assimp6Intern22AllocateFromAssimpHeapdlEPv(ptr noundef nonnull %this) #13
  ret void
}